target datalayout = "e-m:e-p270:32:32-p271:32:32-p272:64:64-i64:64-i128:128-f80:128-n8:16:32:64-S128"
target triple = "x86_64-pc-linux-gnu"

%struct.AVFormatContext = type { ptr, ptr, ptr, ptr, ptr, i32, i32, ptr, i32, ptr, i32, ptr, ptr, i64, i64, i64, i32, i32, i32, i64, i64, ptr, i32, i32, ptr, i32, i32, i32, i32, ptr, i64, i32, i32, %struct.AVIOInterruptCB, i32, i32, i32, i32, i64, i32, i32, i32, i32, i32, i32, i32, i32, i32, i32, i32, i32, i64, i32, i32, i32, i32, i32, ptr, ptr, ptr, ptr, i32, ptr, ptr, ptr, ptr, i32, ptr, ptr, i64, ptr, ptr, ptr, i64 }
%struct.AVIOInterruptCB = type { ptr, ptr }
%struct.DASHContext = type { ptr, ptr, ptr, i32, i32, i32, i64, i64, i32, i32, i32, i32, ptr, i32, i64, i64, [100 x i8], i64, i64, [1024 x i8], ptr, ptr, ptr, ptr, ptr, ptr, ptr, i32, ptr, i32, i32, ptr, ptr, ptr, i32, i64, i32, ptr, i32, i32, i32, i32, i32, i32, i32, i32, i32, i32, i64, i64, i32, i64, i32, %struct.AVRational, %struct.AVRational, i64 }
%struct.AVRational = type { i32, i32 }

@.str.63 = private unnamed_addr constant [7 x i8] c"method\00", align 1
@.str.128 = private unnamed_addr constant [7 x i8] c"DELETE\00", align 1
@.str.129 = private unnamed_addr constant [21 x i8] c"failed to delete %s\0A\00", align 1
@.str.130 = private unnamed_addr constant [25 x i8] c"failed to delete %s: %s\0A\00", align 1

; Function Attrs: inlinehint nounwind uwtable
define internal ptr @av_make_error_string(ptr noundef %0, i64 noundef %1, i32 noundef %2) #11 {
  %4 = alloca ptr, align 8
  %5 = alloca i64, align 8
  %6 = alloca i32, align 4
  store ptr %0, ptr %4, align 8, !tbaa !116
  store i64 %1, ptr %5, align 8, !tbaa !67
  store i32 %2, ptr %6, align 4, !tbaa !28
  %7 = load i32, ptr %6, align 4, !tbaa !28
  %8 = load ptr, ptr %4, align 8, !tbaa !116
  %9 = load i64, ptr %5, align 8, !tbaa !67
  %10 = call i32 @av_strerror(i32 noundef %7, ptr noundef %8, i64 noundef %9)
  %11 = load ptr, ptr %4, align 8, !tbaa !116
  ret ptr %11
}

; Function Attrs: nounwind uwtable
define internal void @dashenc_delete_file(ptr noundef %0, ptr noundef %1) #0 {
  %3 = alloca ptr, align 8
  %4 = alloca ptr, align 8
  %5 = alloca ptr, align 8
  %6 = alloca i32, align 4
  %7 = alloca ptr, align 8
  %8 = alloca i32, align 4
  %9 = alloca [64 x i8], align 1
  store ptr %0, ptr %3, align 8, !tbaa !4
  store ptr %1, ptr %4, align 8, !tbaa !116
  call void @llvm.lifetime.start.p0(i64 8, ptr %5) #13
  %10 = load ptr, ptr %3, align 8, !tbaa !4
  %11 = getelementptr inbounds nuw %struct.AVFormatContext, ptr %10, i32 0, i32 3
  %12 = load ptr, ptr %11, align 8, !tbaa !9
  store ptr %12, ptr %5, align 8, !tbaa !26
  call void @llvm.lifetime.start.p0(i64 4, ptr %6) #13
  %13 = load ptr, ptr %4, align 8, !tbaa !116
  %14 = call i32 @ff_is_http_proto(ptr noundef %13)
  store i32 %14, ptr %6, align 4, !tbaa !28
  %15 = load i32, ptr %6, align 4, !tbaa !28
  %16 = icmp ne i32 %15, 0
  br i1 %16, label %17, label %34

17:                                               ; preds = %2
  call void @llvm.lifetime.start.p0(i64 8, ptr %7) #13
  store ptr null, ptr %7, align 8, !tbaa !114
  %18 = load ptr, ptr %5, align 8, !tbaa !26
  call void @set_http_options(ptr noundef %7, ptr noundef %18)
  %19 = call i32 @av_dict_set(ptr noundef %7, ptr noundef @.str.63, ptr noundef @.str.128, i32 noundef 0)
  %20 = load ptr, ptr %3, align 8, !tbaa !4
  %21 = load ptr, ptr %5, align 8, !tbaa !26
  %22 = getelementptr inbounds nuw %struct.DASHContext, ptr %21, i32 0, i32 33
  %23 = load ptr, ptr %4, align 8, !tbaa !116
  %24 = call i32 @dashenc_io_open(ptr noundef %20, ptr noundef %22, ptr noundef %23, ptr noundef %7)
  %25 = icmp slt i32 %24, 0
  br i1 %25, label %26, label %29

26:                                               ; preds = %17
  %27 = load ptr, ptr %3, align 8, !tbaa !4
  %28 = load ptr, ptr %4, align 8, !tbaa !116
  call void (ptr, i32, ptr, ...) @av_log(ptr noundef %27, i32 noundef 16, ptr noundef @.str.129, ptr noundef %28)
  br label %29

29:                                               ; preds = %26, %17
  call void @av_dict_free(ptr noundef %7)
  %30 = load ptr, ptr %3, align 8, !tbaa !4
  %31 = load ptr, ptr %5, align 8, !tbaa !26
  %32 = getelementptr inbounds nuw %struct.DASHContext, ptr %31, i32 0, i32 33
  %33 = load ptr, ptr %4, align 8, !tbaa !116
  call void @dashenc_io_close(ptr noundef %30, ptr noundef %32, ptr noundef %33)
  call void @llvm.lifetime.end.p0(i64 8, ptr %7) #13
  br label %49

34:                                               ; preds = %2
  call void @llvm.lifetime.start.p0(i64 4, ptr %8) #13
  %35 = load ptr, ptr %4, align 8, !tbaa !116
  %36 = call i32 @ffurl_delete(ptr noundef %35)
  store i32 %36, ptr %8, align 4, !tbaa !28
  %37 = load i32, ptr %8, align 4, !tbaa !28
  %38 = icmp slt i32 %37, 0
  br i1 %38, label %39, label %48

39:                                               ; preds = %34
  %40 = load ptr, ptr %3, align 8, !tbaa !4
  %41 = load i32, ptr %8, align 4, !tbaa !28
  %42 = icmp eq i32 %41, -2
  %43 = select i1 %42, i32 24, i32 16
  %44 = load ptr, ptr %4, align 8, !tbaa !116
  call void @llvm.memset.p0.i64(ptr align 1 %9, i8 0, i64 64, i1 false)
  %45 = getelementptr inbounds [64 x i8], ptr %9, i64 0, i64 0
  %46 = load i32, ptr %8, align 4, !tbaa !28
  %47 = call ptr @av_make_error_string(ptr noundef %45, i64 noundef 64, i32 noundef %46)
  call void (ptr, i32, ptr, ...) @av_log(ptr noundef %40, i32 noundef %43, ptr noundef @.str.130, ptr noundef %44, ptr noundef %47)
  br label %48

48:                                               ; preds = %39, %34
  call void @llvm.lifetime.end.p0(i64 4, ptr %8) #13
  br label %49

49:                                               ; preds = %48, %29
  call void @llvm.lifetime.end.p0(i64 4, ptr %6) #13
  call void @llvm.lifetime.end.p0(i64 8, ptr %5) #13
  ret void
}