; Function Attrs: nounwind uwtable
define internal fastcc void @dashenc_delete_file(ptr noundef %0, ptr noundef %1) unnamed_addr #0 {
  %3 = alloca ptr, align 8
  %4 = alloca [64 x i8], align 1
  %5 = getelementptr inbounds nuw i8, ptr %0, i64 24
  %6 = load ptr, ptr %5, align 8, !tbaa !24
  %7 = tail call i32 @ff_is_http_proto(ptr noundef %1) #15
  %.not = icmp eq i32 %7, 0
  br i1 %.not, label %15, label %8

8:                                                ; preds = %2
  call void @llvm.lifetime.start.p0(i64 8, ptr nonnull %3) #15
  store ptr null, ptr %3, align 8, !tbaa !112
  call fastcc void @set_http_options(ptr noundef %3, ptr noundef %6)
  %9 = call i32 @av_dict_set(ptr noundef nonnull %3, ptr noundef nonnull @.str.63, ptr noundef nonnull @.str.128, i32 noundef 0) #15
  %10 = getelementptr inbounds nuw i8, ptr %6, i64 1344
  %11 = call fastcc i32 @dashenc_io_open(ptr noundef nonnull %0, ptr noundef nonnull %10, ptr noundef %1, ptr noundef %3)
  %12 = icmp slt i32 %11, 0
  br i1 %12, label %13, label %14

13:                                               ; preds = %8
  call void (ptr, i32, ptr, ...) @av_log(ptr noundef nonnull %0, i32 noundef 16, ptr noundef nonnull @.str.129, ptr noundef %1) #15
  br label %14

14:                                               ; preds = %13, %8
  call void @av_dict_free(ptr noundef nonnull %3) #15
  call fastcc void @dashenc_io_close(ptr noundef nonnull %0, ptr noundef nonnull %10, ptr noundef %1)
  call void @llvm.lifetime.end.p0(i64 8, ptr nonnull %3) #15
  br label %22

15:                                               ; preds = %2
  %16 = tail call i32 @ffurl_delete(ptr noundef %1) #15
  %17 = icmp slt i32 %16, 0
  br i1 %17, label %18, label %22

18:                                               ; preds = %15
  %19 = icmp eq i32 %16, -2
  %20 = select i1 %19, i32 24, i32 16
  call void @llvm.memset.p0.i64(ptr noundef nonnull align 1 dereferenceable(64) %4, i8 0, i64 64, i1 false)
  %21 = call i32 @av_strerror(i32 noundef range(i32 -2147483648, 0) %16, ptr noundef nonnull %4, i64 noundef 64) #15
  call void (ptr, i32, ptr, ...) @av_log(ptr noundef nonnull %0, i32 noundef %20, ptr noundef nonnull @.str.130, ptr noundef %1, ptr noundef nonnull %4) #15
  br label %22

22:                                               ; preds = %15, %18, %14
  ret void
}